target datalayout = "e-m:e-p270:32:32-p271:32:32-p272:64:64-i64:64-i128:128-f80:128-n8:16:32:64-S128"
target triple = "x86_64-pc-linux-gnu"

%struct.cli_events = type { ptr, %struct.cli_event, i64, i32, i32 }
%struct.cli_event = type { ptr, %union.ev_val, i32, i16 }
%union.ev_val = type { ptr }

@.str.1 = private unnamed_addr constant [43 x i8] c"events: out of memory allocating %u bytes\0A\00", align 1
@.str.2 = private unnamed_addr constant [40 x i8] c"cli_event_define: event id out of range\00", align 1
@.str.3 = private unnamed_addr constant [65 x i8] c"cli_event_define: can only sum ev_int, ev_time, and ev_data_fast\00", align 1
@.str.4 = private unnamed_addr constant [49 x i8] c"cli_event_define: ev_data_fast can only be sumed\00", align 1
@.str.5 = private unnamed_addr constant [51 x i8] c"cli_event_define: only ev_data can be concatenated\00", align 1
@.str.8 = private unnamed_addr constant [12 x i8] c"events: %s\0A\00", align 1
@.str.19 = private unnamed_addr constant [1 x i8] zeroinitializer, align 1

; Function Attrs: nounwind uwtable
define void @cli_event_error_oom(ptr noundef %0, i32 noundef %1) #0 {
  %3 = alloca ptr, align 8
  %4 = alloca i32, align 4
  store ptr %0, ptr %3, align 8, !tbaa !7
  store i32 %1, ptr %4, align 4, !tbaa !3
  %5 = load ptr, ptr %3, align 8, !tbaa !7
  %6 = icmp ne ptr %5, null
  br i1 %6, label %8, label %7

7:                                                ; preds = %2
  br label %23

8:                                                ; preds = %2
  %9 = load i32, ptr %4, align 4, !tbaa !3
  %10 = zext i32 %9 to i64
  %11 = load ptr, ptr %3, align 8, !tbaa !7
  %12 = getelementptr inbounds nuw %struct.cli_events, ptr %11, i32 0, i32 2
  %13 = load i64, ptr %12, align 8, !tbaa !18
  %14 = add i64 %13, %10
  store i64 %14, ptr %12, align 8, !tbaa !18
  %15 = load ptr, ptr %3, align 8, !tbaa !7
  %16 = getelementptr inbounds nuw %struct.cli_events, ptr %15, i32 0, i32 4
  %17 = load i32, ptr %16, align 4, !tbaa !19
  %18 = add i32 %17, 1
  store i32 %18, ptr %16, align 4, !tbaa !19
  %19 = load i32, ptr %4, align 4, !tbaa !3
  %20 = icmp ne i32 %19, 0
  br i1 %20, label %21, label %23

21:                                               ; preds = %8
  %22 = load i32, ptr %4, align 4, !tbaa !3
  call void (ptr, ...) @cli_errmsg(ptr noundef @.str.1, i32 noundef %22)
  br label %23

23:                                               ; preds = %7, %21, %8
  ret void
}

; Function Attrs: inlinehint nounwind uwtable
define internal void @ev_chain(ptr noundef %0, ptr noundef %1, ptr noundef %2) #5 {
  %4 = alloca ptr, align 8
  %5 = alloca ptr, align 8
  %6 = alloca ptr, align 8
  %7 = alloca ptr, align 8
  %8 = alloca i32, align 4
  %9 = alloca i32, align 4
  store ptr %0, ptr %4, align 8, !tbaa !7
  store ptr %1, ptr %5, align 8, !tbaa !21
  store ptr %2, ptr %6, align 8, !tbaa !26
  call void @llvm.lifetime.start.p0(i64 8, ptr %7) #8
  call void @llvm.lifetime.start.p0(i64 4, ptr %8) #8
  %10 = load ptr, ptr %5, align 8, !tbaa !21
  %11 = getelementptr inbounds nuw %struct.cli_event, ptr %10, i32 0, i32 2
  %12 = load i32, ptr %11, align 8, !tbaa !25
  %13 = add i32 %12, 1
  %14 = zext i32 %13 to i64
  %15 = mul i64 8, %14
  %16 = trunc i64 %15 to i32
  store i32 %16, ptr %8, align 4, !tbaa !3
  %17 = load ptr, ptr %5, align 8, !tbaa !21
  %18 = getelementptr inbounds nuw %struct.cli_event, ptr %17, i32 0, i32 1
  %19 = load ptr, ptr %18, align 8, !tbaa !23
  %20 = load i32, ptr %8, align 4, !tbaa !3
  %21 = zext i32 %20 to i64
  %22 = call ptr @cli_safer_realloc(ptr noundef %19, i64 noundef %21)
  store ptr %22, ptr %7, align 8, !tbaa !26
  %23 = load ptr, ptr %7, align 8, !tbaa !26
  %24 = icmp ne ptr %23, null
  br i1 %24, label %28, label %25

25:                                               ; preds = %3
  %26 = load ptr, ptr %4, align 8, !tbaa !7
  %27 = load i32, ptr %8, align 4, !tbaa !3
  call void @cli_event_error_oom(ptr noundef %26, i32 noundef %27)
  store i32 1, ptr %9, align 4
  br label %45

28:                                               ; preds = %3
  %29 = load ptr, ptr %7, align 8, !tbaa !26
  %30 = load ptr, ptr %5, align 8, !tbaa !21
  %31 = getelementptr inbounds nuw %struct.cli_event, ptr %30, i32 0, i32 1
  store ptr %29, ptr %31, align 8, !tbaa !23
  %32 = load ptr, ptr %5, align 8, !tbaa !21
  %33 = getelementptr inbounds nuw %struct.cli_event, ptr %32, i32 0, i32 1
  %34 = load ptr, ptr %33, align 8, !tbaa !23
  %35 = load ptr, ptr %5, align 8, !tbaa !21
  %36 = getelementptr inbounds nuw %struct.cli_event, ptr %35, i32 0, i32 2
  %37 = load i32, ptr %36, align 8, !tbaa !25
  %38 = zext i32 %37 to i64
  %39 = getelementptr inbounds nuw %union.ev_val, ptr %34, i64 %38
  %40 = load ptr, ptr %6, align 8, !tbaa !26
  call void @llvm.memcpy.p0.p0.i64(ptr align 8 %39, ptr align 8 %40, i64 8, i1 false), !tbaa.struct !28
  %41 = load ptr, ptr %5, align 8, !tbaa !21
  %42 = getelementptr inbounds nuw %struct.cli_event, ptr %41, i32 0, i32 2
  %43 = load i32, ptr %42, align 8, !tbaa !25
  %44 = add i32 %43, 1
  store i32 %44, ptr %42, align 8, !tbaa !25
  store i32 0, ptr %9, align 4
  br label %45

45:                                               ; preds = %28, %25
  call void @llvm.lifetime.end.p0(i64 4, ptr %8) #8
  call void @llvm.lifetime.end.p0(i64 8, ptr %7) #8
  %46 = load i32, ptr %9, align 4
  switch i32 %46, label %48 [
    i32 0, label %47
    i32 1, label %47
  ]

47:                                               ; preds = %45, %45
  ret void

48:                                               ; preds = %45
  unreachable
}

; Function Attrs: nounwind uwtable
define internal void @event_string(ptr noundef %0, ptr noundef %1, ptr noundef %2) #0 {
  %4 = alloca ptr, align 8
  %5 = alloca ptr, align 8
  %6 = alloca ptr, align 8
  %7 = alloca %union.ev_val, align 8
  store ptr %0, ptr %4, align 8, !tbaa !7
  store ptr %1, ptr %5, align 8, !tbaa !21
  store ptr %2, ptr %6, align 8, !tbaa !20
  %8 = load ptr, ptr %6, align 8, !tbaa !20
  %9 = icmp ne ptr %8, null
  br i1 %9, label %11, label %10

10:                                               ; preds = %3
  store ptr @.str.19, ptr %6, align 8, !tbaa !20
  br label %11

11:                                               ; preds = %10, %3
  %12 = load ptr, ptr %5, align 8, !tbaa !21
  %13 = getelementptr inbounds nuw %struct.cli_event, ptr %12, i32 0, i32 3
  %14 = load i16, ptr %13, align 4
  %15 = lshr i16 %14, 8
  %16 = zext i16 %15 to i32
  switch i32 %16, label %29 [
    i32 0, label %17
    i32 1, label %25
  ]

17:                                               ; preds = %11
  %18 = load ptr, ptr %6, align 8, !tbaa !20
  %19 = load ptr, ptr %5, align 8, !tbaa !21
  %20 = getelementptr inbounds nuw %struct.cli_event, ptr %19, i32 0, i32 1
  store ptr %18, ptr %20, align 8, !tbaa !23
  %21 = load ptr, ptr %5, align 8, !tbaa !21
  %22 = getelementptr inbounds nuw %struct.cli_event, ptr %21, i32 0, i32 2
  %23 = load i32, ptr %22, align 8, !tbaa !25
  %24 = add i32 %23, 1
  store i32 %24, ptr %22, align 8, !tbaa !25
  br label %30

25:                                               ; preds = %11
  call void @llvm.lifetime.start.p0(i64 8, ptr %7) #8
  %26 = load ptr, ptr %6, align 8, !tbaa !20
  store ptr %26, ptr %7, align 8, !tbaa !23
  %27 = load ptr, ptr %4, align 8, !tbaa !7
  %28 = load ptr, ptr %5, align 8, !tbaa !21
  call void @ev_chain(ptr noundef %27, ptr noundef %28, ptr noundef %7)
  call void @llvm.lifetime.end.p0(i64 8, ptr %7) #8
  br label %30

29:                                               ; preds = %11
  br label %30

30:                                               ; preds = %29, %25, %17
  ret void
}

; Function Attrs: nounwind uwtable
define void @cli_event_error_str(ptr noundef %0, ptr noundef %1) #0 {
  %3 = alloca ptr, align 8
  %4 = alloca ptr, align 8
  store ptr %0, ptr %3, align 8, !tbaa !7
  store ptr %1, ptr %4, align 8, !tbaa !20
  %5 = load ptr, ptr %3, align 8, !tbaa !7
  %6 = icmp ne ptr %5, null
  br i1 %6, label %8, label %7

7:                                                ; preds = %2
  br label %14

8:                                                ; preds = %2
  %9 = load ptr, ptr %4, align 8, !tbaa !20
  call void (ptr, ...) @cli_warnmsg(ptr noundef @.str.8, ptr noundef %9)
  %10 = load ptr, ptr %3, align 8, !tbaa !7
  %11 = load ptr, ptr %3, align 8, !tbaa !7
  %12 = getelementptr inbounds nuw %struct.cli_events, ptr %11, i32 0, i32 1
  %13 = load ptr, ptr %4, align 8, !tbaa !20
  call void @event_string(ptr noundef %10, ptr noundef %12, ptr noundef %13)
  br label %14

14:                                               ; preds = %8, %7
  ret void
}

; Function Attrs: nounwind uwtable
define i32 @cli_event_define(ptr noundef %0, i32 noundef %1, ptr noundef %2, i32 noundef %3, i32 noundef %4) #0 {
  %6 = alloca i32, align 4
  %7 = alloca ptr, align 8
  %8 = alloca i32, align 4
  %9 = alloca ptr, align 8
  %10 = alloca i32, align 4
  %11 = alloca i32, align 4
  %12 = alloca ptr, align 8
  %13 = alloca i32, align 4
  store ptr %0, ptr %7, align 8, !tbaa !7
  store i32 %1, ptr %8, align 4, !tbaa !3
  store ptr %2, ptr %9, align 8, !tbaa !20
  store i32 %3, ptr %10, align 4, !tbaa !3
  store i32 %4, ptr %11, align 4, !tbaa !3
  call void @llvm.lifetime.start.p0(i64 8, ptr %12) #8
  %14 = load ptr, ptr %7, align 8, !tbaa !7
  %15 = getelementptr inbounds nuw %struct.cli_events, ptr %14, i32 0, i32 0
  %16 = load ptr, ptr %15, align 8, !tbaa !16
  %17 = load i32, ptr %8, align 4, !tbaa !3
  %18 = zext i32 %17 to i64
  %19 = getelementptr inbounds nuw %struct.cli_event, ptr %16, i64 %18
  store ptr %19, ptr %12, align 8, !tbaa !21
  %20 = load i32, ptr %8, align 4, !tbaa !3
  %21 = load ptr, ptr %7, align 8, !tbaa !7
  %22 = getelementptr inbounds nuw %struct.cli_events, ptr %21, i32 0, i32 3
  %23 = load i32, ptr %22, align 8, !tbaa !10
  %24 = icmp uge i32 %20, %23
  br i1 %24, label %25, label %27

25:                                               ; preds = %5
  %26 = load ptr, ptr %7, align 8, !tbaa !7
  call void @cli_event_error_str(ptr noundef %26, ptr noundef @.str.2)
  store i32 -1, ptr %6, align 4
  store i32 1, ptr %13, align 4
  br label %92

27:                                               ; preds = %5
  %28 = load i32, ptr %11, align 4, !tbaa !3
  %29 = icmp eq i32 %28, 2
  br i1 %29, label %30, label %41

30:                                               ; preds = %27
  %31 = load i32, ptr %10, align 4, !tbaa !3
  %32 = icmp ne i32 %31, 4
  br i1 %32, label %33, label %41

33:                                               ; preds = %30
  %34 = load i32, ptr %10, align 4, !tbaa !3
  %35 = icmp ne i32 %34, 5
  br i1 %35, label %36, label %41

36:                                               ; preds = %33
  %37 = load i32, ptr %10, align 4, !tbaa !3
  %38 = icmp ne i32 %37, 3
  br i1 %38, label %39, label %41

39:                                               ; preds = %36
  %40 = load ptr, ptr %7, align 8, !tbaa !7
  call void @cli_event_error_str(ptr noundef %40, ptr noundef @.str.3)
  store i32 -1, ptr %6, align 4
  store i32 1, ptr %13, align 4
  br label %92

41:                                               ; preds = %36, %33, %30, %27
  %42 = load i32, ptr %10, align 4, !tbaa !3
  %43 = icmp eq i32 %42, 3
  br i1 %43, label %44, label %49

44:                                               ; preds = %41
  %45 = load i32, ptr %11, align 4, !tbaa !3
  %46 = icmp ne i32 %45, 2
  br i1 %46, label %47, label %49

47:                                               ; preds = %44
  %48 = load ptr, ptr %7, align 8, !tbaa !7
  call void @cli_event_error_str(ptr noundef %48, ptr noundef @.str.4)
  store i32 -1, ptr %6, align 4
  store i32 1, ptr %13, align 4
  br label %92

49:                                               ; preds = %44, %41
  %50 = load i32, ptr %11, align 4, !tbaa !3
  %51 = icmp eq i32 %50, 3
  br i1 %51, label %52, label %57

52:                                               ; preds = %49
  %53 = load i32, ptr %10, align 4, !tbaa !3
  %54 = icmp ne i32 %53, 2
  br i1 %54, label %55, label %57

55:                                               ; preds = %52
  %56 = load ptr, ptr %7, align 8, !tbaa !7
  call void @cli_event_error_str(ptr noundef %56, ptr noundef @.str.5)
  store i32 -1, ptr %6, align 4
  store i32 1, ptr %13, align 4
  br label %92

57:                                               ; preds = %52, %49
  %58 = load i32, ptr %10, align 4, !tbaa !3
  %59 = load ptr, ptr %12, align 8, !tbaa !21
  %60 = getelementptr inbounds nuw %struct.cli_event, ptr %59, i32 0, i32 3
  %61 = trunc i32 %58 to i16
  %62 = load i16, ptr %60, align 4
  %63 = and i16 %61, 255
  %64 = and i16 %62, -256
  %65 = or i16 %64, %63
  store i16 %65, ptr %60, align 4
  %66 = load ptr, ptr %9, align 8, !tbaa !20
  %67 = load ptr, ptr %12, align 8, !tbaa !21
  %68 = getelementptr inbounds nuw %struct.cli_event, ptr %67, i32 0, i32 0
  store ptr %66, ptr %68, align 8, !tbaa !22
  %69 = load i32, ptr %10, align 4, !tbaa !3
  %70 = load ptr, ptr %12, align 8, !tbaa !21
  %71 = getelementptr inbounds nuw %struct.cli_event, ptr %70, i32 0, i32 3
  %72 = trunc i32 %69 to i16
  %73 = load i16, ptr %71, align 4
  %74 = and i16 %72, 255
  %75 = and i16 %73, -256
  %76 = or i16 %75, %74
  store i16 %76, ptr %71, align 4
  %77 = load i32, ptr %11, align 4, !tbaa !3
  %78 = load ptr, ptr %12, align 8, !tbaa !21
  %79 = getelementptr inbounds nuw %struct.cli_event, ptr %78, i32 0, i32 3
  %80 = trunc i32 %77 to i16
  %81 = load i16, ptr %79, align 4
  %82 = and i16 %80, 255
  %83 = shl i16 %82, 8
  %84 = and i16 %81, 255
  %85 = or i16 %84, %83
  store i16 %85, ptr %79, align 4
  %86 = load i32, ptr %10, align 4, !tbaa !3
  %87 = icmp eq i32 %86, 3
  br i1 %87, label %88, label %91

88:                                               ; preds = %57
  %89 = load ptr, ptr %12, align 8, !tbaa !21
  %90 = getelementptr inbounds nuw %struct.cli_event, ptr %89, i32 0, i32 1
  store i64 4294967295, ptr %90, align 8, !tbaa !23
  br label %91

91:                                               ; preds = %88, %57
  store i32 0, ptr %6, align 4
  store i32 1, ptr %13, align 4
  br label %92

92:                                               ; preds = %91, %55, %47, %39, %25
  call void @llvm.lifetime.end.p0(i64 8, ptr %12) #8
  %93 = load i32, ptr %6, align 4
  ret i32 %93
}