; Function Attrs: nounwind uwtable
define range(i32 -1, 1) i32 @cli_event_define(ptr noundef captures(none) %0, i32 noundef %1, ptr noundef %2, i32 noundef %3, i32 noundef %4) local_unnamed_addr #5 {
  %6 = load ptr, ptr %0, align 8, !tbaa !13
  %7 = zext i32 %1 to i64
  %8 = getelementptr inbounds nuw %struct.cli_event, ptr %6, i64 %7
  %9 = getelementptr inbounds nuw i8, ptr %0, i64 40
  %10 = load i32, ptr %9, align 8, !tbaa !3
  %.not = icmp ult i32 %1, %10
  br i1 %.not, label %43, label %11

11:                                               ; preds = %5
  tail call void (ptr, ...) @cli_warnmsg(ptr noundef nonnull @.str.8, ptr noundef nonnull @.str.2) #14
  %12 = getelementptr inbounds nuw i8, ptr %0, i64 28
  %13 = load i16, ptr %12, align 4
  %14 = lshr i16 %13, 8
  %trunc.i.i = trunc nuw i16 %14 to i8
  switch i8 %trunc.i.i, label %cli_event_error_str.exit [
    i8 0, label %15
    i8 1, label %20
  ]

15:                                               ; preds = %11
  %16 = getelementptr inbounds nuw i8, ptr %0, i64 16
  store ptr @.str.2, ptr %16, align 8, !tbaa !17
  %17 = getelementptr inbounds nuw i8, ptr %0, i64 24
  %18 = load i32, ptr %17, align 8, !tbaa !18
  %19 = add i32 %18, 1
  store i32 %19, ptr %17, align 8, !tbaa !18
  br label %cli_event_error_str.exit

20:                                               ; preds = %11
  %21 = getelementptr inbounds nuw i8, ptr %0, i64 24
  %22 = load i32, ptr %21, align 8, !tbaa !18
  %23 = shl i32 %22, 3
  %24 = add i32 %23, 8
  %25 = getelementptr inbounds nuw i8, ptr %0, i64 16
  %26 = load ptr, ptr %25, align 8, !tbaa !17
  %27 = zext i32 %24 to i64
  %28 = tail call ptr @cli_safer_realloc(ptr noundef %26, i64 noundef %27) #14
  %.not.i.i.i = icmp eq ptr %28, null
  br i1 %.not.i.i.i, label %29, label %37

29:                                               ; preds = %20
  %30 = getelementptr inbounds nuw i8, ptr %0, i64 32
  %31 = load i64, ptr %30, align 8, !tbaa !15
  %32 = add i64 %31, %27
  store i64 %32, ptr %30, align 8, !tbaa !15
  %33 = getelementptr inbounds nuw i8, ptr %0, i64 44
  %34 = load i32, ptr %33, align 4, !tbaa !16
  %35 = add i32 %34, 1
  store i32 %35, ptr %33, align 4, !tbaa !16
  %.not6.i.i.i.i = icmp eq i32 %24, 0
  br i1 %.not6.i.i.i.i, label %cli_event_error_str.exit, label %36

36:                                               ; preds = %29
  tail call void (ptr, ...) @cli_errmsg(ptr noundef nonnull @.str.1, i32 noundef %24) #14
  br label %cli_event_error_str.exit

37:                                               ; preds = %20
  store ptr %28, ptr %25, align 8, !tbaa !17
  %38 = load i32, ptr %21, align 8, !tbaa !18
  %39 = zext i32 %38 to i64
  %40 = getelementptr inbounds nuw %union.ev_val, ptr %28, i64 %39
  store i64 ptrtoint (ptr @.str.2 to i64), ptr %40, align 8, !tbaa !17
  %41 = load i32, ptr %21, align 8, !tbaa !18
  %42 = add i32 %41, 1
  store i32 %42, ptr %21, align 8, !tbaa !18
  br label %cli_event_error_str.exit

43:                                               ; preds = %5
  %44 = icmp eq i32 %4, 2
  %45 = add i32 %3, -6
  %46 = icmp ult i32 %45, -3
  %or.cond5 = and i1 %44, %46
  br i1 %or.cond5, label %47, label %79

47:                                               ; preds = %43
  tail call void (ptr, ...) @cli_warnmsg(ptr noundef nonnull @.str.8, ptr noundef nonnull @.str.3) #14
  %48 = getelementptr inbounds nuw i8, ptr %0, i64 28
  %49 = load i16, ptr %48, align 4
  %50 = lshr i16 %49, 8
  %trunc.i.i36 = trunc nuw i16 %50 to i8
  switch i8 %trunc.i.i36, label %cli_event_error_str.exit [
    i8 0, label %51
    i8 1, label %56
  ]

51:                                               ; preds = %47
  %52 = getelementptr inbounds nuw i8, ptr %0, i64 16
  store ptr @.str.3, ptr %52, align 8, !tbaa !17
  %53 = getelementptr inbounds nuw i8, ptr %0, i64 24
  %54 = load i32, ptr %53, align 8, !tbaa !18
  %55 = add i32 %54, 1
  store i32 %55, ptr %53, align 8, !tbaa !18
  br label %cli_event_error_str.exit

56:                                               ; preds = %47
  %57 = getelementptr inbounds nuw i8, ptr %0, i64 24
  %58 = load i32, ptr %57, align 8, !tbaa !18
  %59 = shl i32 %58, 3
  %60 = add i32 %59, 8
  %61 = getelementptr inbounds nuw i8, ptr %0, i64 16
  %62 = load ptr, ptr %61, align 8, !tbaa !17
  %63 = zext i32 %60 to i64
  %64 = tail call ptr @cli_safer_realloc(ptr noundef %62, i64 noundef %63) #14
  %.not.i.i.i37 = icmp eq ptr %64, null
  br i1 %.not.i.i.i37, label %65, label %73

65:                                               ; preds = %56
  %66 = getelementptr inbounds nuw i8, ptr %0, i64 32
  %67 = load i64, ptr %66, align 8, !tbaa !15
  %68 = add i64 %67, %63
  store i64 %68, ptr %66, align 8, !tbaa !15
  %69 = getelementptr inbounds nuw i8, ptr %0, i64 44
  %70 = load i32, ptr %69, align 4, !tbaa !16
  %71 = add i32 %70, 1
  store i32 %71, ptr %69, align 4, !tbaa !16
  %.not6.i.i.i.i38 = icmp eq i32 %60, 0
  br i1 %.not6.i.i.i.i38, label %cli_event_error_str.exit, label %72

72:                                               ; preds = %65
  tail call void (ptr, ...) @cli_errmsg(ptr noundef nonnull @.str.1, i32 noundef %60) #14
  br label %cli_event_error_str.exit

73:                                               ; preds = %56
  store ptr %64, ptr %61, align 8, !tbaa !17
  %74 = load i32, ptr %57, align 8, !tbaa !18
  %75 = zext i32 %74 to i64
  %76 = getelementptr inbounds nuw %union.ev_val, ptr %64, i64 %75
  store i64 ptrtoint (ptr @.str.3 to i64), ptr %76, align 8, !tbaa !17
  %77 = load i32, ptr %57, align 8, !tbaa !18
  %78 = add i32 %77, 1
  store i32 %78, ptr %57, align 8, !tbaa !18
  br label %cli_event_error_str.exit

79:                                               ; preds = %43
  %80 = icmp eq i32 %3, 3
  %81 = icmp ne i32 %4, 2
  %or.cond7 = and i1 %80, %81
  br i1 %or.cond7, label %82, label %114

82:                                               ; preds = %79
  tail call void (ptr, ...) @cli_warnmsg(ptr noundef nonnull @.str.8, ptr noundef nonnull @.str.4) #14
  %83 = getelementptr inbounds nuw i8, ptr %0, i64 28
  %84 = load i16, ptr %83, align 4
  %85 = lshr i16 %84, 8
  %trunc.i.i41 = trunc nuw i16 %85 to i8
  switch i8 %trunc.i.i41, label %cli_event_error_str.exit [
    i8 0, label %86
    i8 1, label %91
  ]

86:                                               ; preds = %82
  %87 = getelementptr inbounds nuw i8, ptr %0, i64 16
  store ptr @.str.4, ptr %87, align 8, !tbaa !17
  %88 = getelementptr inbounds nuw i8, ptr %0, i64 24
  %89 = load i32, ptr %88, align 8, !tbaa !18
  %90 = add i32 %89, 1
  store i32 %90, ptr %88, align 8, !tbaa !18
  br label %cli_event_error_str.exit

91:                                               ; preds = %82
  %92 = getelementptr inbounds nuw i8, ptr %0, i64 24
  %93 = load i32, ptr %92, align 8, !tbaa !18
  %94 = shl i32 %93, 3
  %95 = add i32 %94, 8
  %96 = getelementptr inbounds nuw i8, ptr %0, i64 16
  %97 = load ptr, ptr %96, align 8, !tbaa !17
  %98 = zext i32 %95 to i64
  %99 = tail call ptr @cli_safer_realloc(ptr noundef %97, i64 noundef %98) #14
  %.not.i.i.i42 = icmp eq ptr %99, null
  br i1 %.not.i.i.i42, label %100, label %108

100:                                              ; preds = %91
  %101 = getelementptr inbounds nuw i8, ptr %0, i64 32
  %102 = load i64, ptr %101, align 8, !tbaa !15
  %103 = add i64 %102, %98
  store i64 %103, ptr %101, align 8, !tbaa !15
  %104 = getelementptr inbounds nuw i8, ptr %0, i64 44
  %105 = load i32, ptr %104, align 4, !tbaa !16
  %106 = add i32 %105, 1
  store i32 %106, ptr %104, align 4, !tbaa !16
  %.not6.i.i.i.i43 = icmp eq i32 %95, 0
  br i1 %.not6.i.i.i.i43, label %cli_event_error_str.exit, label %107

107:                                              ; preds = %100
  tail call void (ptr, ...) @cli_errmsg(ptr noundef nonnull @.str.1, i32 noundef %95) #14
  br label %cli_event_error_str.exit

108:                                              ; preds = %91
  store ptr %99, ptr %96, align 8, !tbaa !17
  %109 = load i32, ptr %92, align 8, !tbaa !18
  %110 = zext i32 %109 to i64
  %111 = getelementptr inbounds nuw %union.ev_val, ptr %99, i64 %110
  store i64 ptrtoint (ptr @.str.4 to i64), ptr %111, align 8, !tbaa !17
  %112 = load i32, ptr %92, align 8, !tbaa !18
  %113 = add i32 %112, 1
  store i32 %113, ptr %92, align 8, !tbaa !18
  br label %cli_event_error_str.exit

114:                                              ; preds = %79
  %115 = icmp eq i32 %4, 3
  %116 = icmp ne i32 %3, 2
  %or.cond9 = and i1 %116, %115
  br i1 %or.cond9, label %117, label %149

117:                                              ; preds = %114
  tail call void (ptr, ...) @cli_warnmsg(ptr noundef nonnull @.str.8, ptr noundef nonnull @.str.5) #14
  %118 = getelementptr inbounds nuw i8, ptr %0, i64 28
  %119 = load i16, ptr %118, align 4
  %120 = lshr i16 %119, 8
  %trunc.i.i46 = trunc nuw i16 %120 to i8
  switch i8 %trunc.i.i46, label %cli_event_error_str.exit [
    i8 0, label %121
    i8 1, label %126
  ]

121:                                              ; preds = %117
  %122 = getelementptr inbounds nuw i8, ptr %0, i64 16
  store ptr @.str.5, ptr %122, align 8, !tbaa !17
  %123 = getelementptr inbounds nuw i8, ptr %0, i64 24
  %124 = load i32, ptr %123, align 8, !tbaa !18
  %125 = add i32 %124, 1
  store i32 %125, ptr %123, align 8, !tbaa !18
  br label %cli_event_error_str.exit

126:                                              ; preds = %117
  %127 = getelementptr inbounds nuw i8, ptr %0, i64 24
  %128 = load i32, ptr %127, align 8, !tbaa !18
  %129 = shl i32 %128, 3
  %130 = add i32 %129, 8
  %131 = getelementptr inbounds nuw i8, ptr %0, i64 16
  %132 = load ptr, ptr %131, align 8, !tbaa !17
  %133 = zext i32 %130 to i64
  %134 = tail call ptr @cli_safer_realloc(ptr noundef %132, i64 noundef %133) #14
  %.not.i.i.i47 = icmp eq ptr %134, null
  br i1 %.not.i.i.i47, label %135, label %143

135:                                              ; preds = %126
  %136 = getelementptr inbounds nuw i8, ptr %0, i64 32
  %137 = load i64, ptr %136, align 8, !tbaa !15
  %138 = add i64 %137, %133
  store i64 %138, ptr %136, align 8, !tbaa !15
  %139 = getelementptr inbounds nuw i8, ptr %0, i64 44
  %140 = load i32, ptr %139, align 4, !tbaa !16
  %141 = add i32 %140, 1
  store i32 %141, ptr %139, align 4, !tbaa !16
  %.not6.i.i.i.i48 = icmp eq i32 %130, 0
  br i1 %.not6.i.i.i.i48, label %cli_event_error_str.exit, label %142

142:                                              ; preds = %135
  tail call void (ptr, ...) @cli_errmsg(ptr noundef nonnull @.str.1, i32 noundef %130) #14
  br label %cli_event_error_str.exit

143:                                              ; preds = %126
  store ptr %134, ptr %131, align 8, !tbaa !17
  %144 = load i32, ptr %127, align 8, !tbaa !18
  %145 = zext i32 %144 to i64
  %146 = getelementptr inbounds nuw %union.ev_val, ptr %134, i64 %145
  store i64 ptrtoint (ptr @.str.5 to i64), ptr %146, align 8, !tbaa !17
  %147 = load i32, ptr %127, align 8, !tbaa !18
  %148 = add i32 %147, 1
  store i32 %148, ptr %127, align 8, !tbaa !18
  br label %cli_event_error_str.exit

149:                                              ; preds = %114
  %150 = getelementptr inbounds nuw i8, ptr %8, i64 20
  %151 = trunc i32 %3 to i16
  %152 = and i16 %151, 255
  store ptr %2, ptr %8, align 8, !tbaa !19
  %153 = trunc i32 %4 to i16
  %154 = shl i16 %153, 8
  %155 = or disjoint i16 %154, %152
  store i16 %155, ptr %150, align 4
  br i1 %80, label %156, label %cli_event_error_str.exit

156:                                              ; preds = %149
  %157 = getelementptr inbounds nuw i8, ptr %8, i64 8
  store i64 4294967295, ptr %157, align 8, !tbaa !17
  br label %cli_event_error_str.exit

cli_event_error_str.exit:                         ; preds = %143, %142, %135, %121, %117, %108, %107, %100, %86, %82, %73, %72, %65, %51, %47, %37, %36, %29, %15, %11, %149, %156
  %.0 = phi i32 [ 0, %156 ], [ 0, %149 ], [ -1, %11 ], [ -1, %15 ], [ -1, %29 ], [ -1, %36 ], [ -1, %37 ], [ -1, %47 ], [ -1, %51 ], [ -1, %65 ], [ -1, %72 ], [ -1, %73 ], [ -1, %82 ], [ -1, %86 ], [ -1, %100 ], [ -1, %107 ], [ -1, %108 ], [ -1, %117 ], [ -1, %121 ], [ -1, %135 ], [ -1, %142 ], [ -1, %143 ]
  ret i32 %.0
}